target datalayout = "e-m:e-p270:32:32-p271:32:32-p272:64:64-i64:64-i128:128-f80:128-n8:16:32:64-S128"
target triple = "x86_64-pc-linux-gnu"

%class.aiVector3t = type { double, double, double }
%"class.Assimp::IFC::BoundedCurve" = type { %"class.Assimp::IFC::Curve" }
%"class.Assimp::IFC::Curve" = type { ptr, ptr, ptr }
%"class.Assimp::IFC::(anonymous namespace)::TrimmedCurve" = type { %"class.Assimp::IFC::BoundedCurve", %"struct.std::pair", double, i8, %"class.std::shared_ptr" }
%"struct.std::pair" = type { double, double }
%"class.std::shared_ptr" = type { %"class.std::__shared_ptr" }
%"class.std::__shared_ptr" = type { ptr, %"class.std::__shared_count" }
%"class.std::__shared_count" = type { ptr }

; Function Attrs: mustprogress nounwind uwtable
define linkonce_odr hidden noundef ptr @_ZNKSt12__shared_ptrIKN6Assimp3IFC5CurveELN9__gnu_cxx12_Lock_policyE2EE3getEv(ptr noundef nonnull align 8 dereferenceable(16) %0) #2 comdat align 2 {
  %2 = alloca ptr, align 8
  store ptr %0, ptr %2, align 8
  %3 = load ptr, ptr %2, align 8
  %4 = getelementptr inbounds nuw %"class.std::__shared_ptr", ptr %3, i32 0, i32 0
  %5 = load ptr, ptr %4, align 8
  ret ptr %5
}

; Function Attrs: mustprogress nounwind uwtable
define linkonce_odr hidden noundef ptr @_ZNKSt19__shared_ptr_accessIKN6Assimp3IFC5CurveELN9__gnu_cxx12_Lock_policyE2ELb0ELb0EE6_M_getEv(ptr noundef nonnull align 1 dereferenceable(1) %0) #2 comdat align 2 {
  %2 = alloca ptr, align 8
  store ptr %0, ptr %2, align 8
  %3 = load ptr, ptr %2, align 8
  %4 = call noundef ptr @_ZNKSt12__shared_ptrIKN6Assimp3IFC5CurveELN9__gnu_cxx12_Lock_policyE2EE3getEv(ptr noundef nonnull align 8 dereferenceable(16) %3) #19
  ret ptr %4
}

; Function Attrs: mustprogress nounwind uwtable
define internal noundef double @_ZNK6Assimp3IFC12_GLOBAL__N_112TrimmedCurve9TrimParamEd(ptr noundef nonnull align 8 dereferenceable(72) %0, double noundef %1) #2 align 2 {
  %3 = alloca ptr, align 8
  %4 = alloca double, align 8
  store ptr %0, ptr %3, align 8
  store double %1, ptr %4, align 8
  %5 = load ptr, ptr %3, align 8
  %6 = getelementptr inbounds nuw %"class.Assimp::IFC::(anonymous namespace)::TrimmedCurve", ptr %5, i32 0, i32 3
  %7 = load i8, ptr %6, align 8, !range !3, !noundef !4
  %8 = trunc i8 %7 to i1
  br i1 %8, label %9, label %15

9:                                                ; preds = %2
  %10 = load double, ptr %4, align 8
  %11 = getelementptr inbounds nuw %"class.Assimp::IFC::(anonymous namespace)::TrimmedCurve", ptr %5, i32 0, i32 1
  %12 = getelementptr inbounds nuw %"struct.std::pair", ptr %11, i32 0, i32 0
  %13 = load double, ptr %12, align 8
  %14 = fadd double %10, %13
  br label %21

15:                                               ; preds = %2
  %16 = getelementptr inbounds nuw %"class.Assimp::IFC::(anonymous namespace)::TrimmedCurve", ptr %5, i32 0, i32 1
  %17 = getelementptr inbounds nuw %"struct.std::pair", ptr %16, i32 0, i32 1
  %18 = load double, ptr %17, align 8
  %19 = load double, ptr %4, align 8
  %20 = fsub double %18, %19
  br label %21

21:                                               ; preds = %15, %9
  %22 = phi double [ %14, %9 ], [ %20, %15 ]
  ret double %22
}

; Function Attrs: mustprogress nounwind uwtable
define linkonce_odr hidden noundef ptr @_ZNKSt19__shared_ptr_accessIKN6Assimp3IFC5CurveELN9__gnu_cxx12_Lock_policyE2ELb0ELb0EEptEv(ptr noundef nonnull align 1 dereferenceable(1) %0) #2 comdat align 2 {
  %2 = alloca ptr, align 8
  store ptr %0, ptr %2, align 8
  %3 = load ptr, ptr %2, align 8
  %4 = call noundef ptr @_ZNKSt19__shared_ptr_accessIKN6Assimp3IFC5CurveELN9__gnu_cxx12_Lock_policyE2ELb0ELb0EE6_M_getEv(ptr noundef nonnull align 1 dereferenceable(1) %3) #19
  ret ptr %4
}

; Function Attrs: mustprogress uwtable
define internal void @_ZNK6Assimp3IFC12_GLOBAL__N_112TrimmedCurve4EvalEd(ptr dead_on_unwind noalias writable sret(%class.aiVector3t) align 8 %0, ptr noundef nonnull align 8 dereferenceable(72) %1, double noundef %2) unnamed_addr #1 align 2 {
  %4 = alloca ptr, align 8
  %5 = alloca double, align 8
  store ptr %1, ptr %4, align 8
  store double %2, ptr %5, align 8
  %6 = load ptr, ptr %4, align 8
  %7 = getelementptr inbounds nuw %"class.Assimp::IFC::(anonymous namespace)::TrimmedCurve", ptr %6, i32 0, i32 4
  %8 = call noundef ptr @_ZNKSt19__shared_ptr_accessIKN6Assimp3IFC5CurveELN9__gnu_cxx12_Lock_policyE2ELb0ELb0EEptEv(ptr noundef nonnull align 1 dereferenceable(1) %7) #19
  %9 = load double, ptr %5, align 8
  %10 = call noundef double @_ZNK6Assimp3IFC12_GLOBAL__N_112TrimmedCurve9TrimParamEd(ptr noundef nonnull align 8 dereferenceable(72) %6, double noundef %9)
  %11 = load ptr, ptr %8, align 8
  %12 = getelementptr inbounds ptr, ptr %11, i64 3
  %13 = load ptr, ptr %12, align 8
  call void %13(ptr dead_on_unwind writable sret(%class.aiVector3t) align 8 %0, ptr noundef nonnull align 8 dereferenceable(24) %8, double noundef %10)
  ret void
}